target datalayout = "e-m:e-p270:32:32-p271:32:32-p272:64:64-i64:64-i128:128-f80:128-n8:16:32:64-S128"
target triple = "x86_64-pc-linux-gnu"

%struct._lv_dropdown_t = type { %struct._lv_obj_t, ptr, ptr, ptr, ptr, i32, i32, i32, i32, i8 }
%struct._lv_obj_t = type { ptr, ptr, ptr, ptr, ptr, %struct.lv_area_t, i32, i16, i16 }
%struct.lv_area_t = type { i32, i32, i32, i32 }

@.str.3 = private unnamed_addr constant [1 x i8] zeroinitializer, align 1

; Function Attrs: nounwind uwtable
define ptr @lv_dropdown_get_options(ptr noundef %0) #0 {
  %2 = alloca ptr, align 8
  %3 = alloca ptr, align 8
  store ptr %0, ptr %2, align 8, !tbaa !3
  br label %4

4:                                                ; preds = %1
  br label %5

5:                                                ; preds = %4
  call void @llvm.lifetime.start.p0(i64 8, ptr %3) #5
  %6 = load ptr, ptr %2, align 8, !tbaa !3
  store ptr %6, ptr %3, align 8, !tbaa !3
  %7 = load ptr, ptr %3, align 8, !tbaa !3
  %8 = getelementptr inbounds nuw %struct._lv_dropdown_t, ptr %7, i32 0, i32 4
  %9 = load ptr, ptr %8, align 8, !tbaa !13
  %10 = icmp eq ptr %9, null
  br i1 %10, label %11, label %12

11:                                               ; preds = %5
  br label %16

12:                                               ; preds = %5
  %13 = load ptr, ptr %3, align 8, !tbaa !3
  %14 = getelementptr inbounds nuw %struct._lv_dropdown_t, ptr %13, i32 0, i32 4
  %15 = load ptr, ptr %14, align 8, !tbaa !13
  br label %16

16:                                               ; preds = %12, %11
  %17 = phi ptr [ @.str.3, %11 ], [ %15, %12 ]
  call void @llvm.lifetime.end.p0(i64 8, ptr %3) #5
  ret ptr %17
}

; Function Attrs: nounwind uwtable
define i32 @lv_dropdown_get_option_index(ptr noundef %0, ptr noundef %1) #0 {
  %3 = alloca i32, align 4
  %4 = alloca ptr, align 8
  %5 = alloca ptr, align 8
  %6 = alloca ptr, align 8
  %7 = alloca i32, align 4
  %8 = alloca i32, align 4
  %9 = alloca ptr, align 8
  %10 = alloca i64, align 8
  %11 = alloca i32, align 4
  store ptr %0, ptr %4, align 8, !tbaa !3
  store ptr %1, ptr %5, align 8, !tbaa !3
  call void @llvm.lifetime.start.p0(i64 8, ptr %6) #5
  %12 = load ptr, ptr %4, align 8, !tbaa !3
  %13 = call ptr @lv_dropdown_get_options(ptr noundef %12)
  store ptr %13, ptr %6, align 8, !tbaa !3
  call void @llvm.lifetime.start.p0(i64 4, ptr %7) #5
  store i32 0, ptr %7, align 4, !tbaa !22
  call void @llvm.lifetime.start.p0(i64 4, ptr %8) #5
  store i32 0, ptr %8, align 4, !tbaa !22
  call void @llvm.lifetime.start.p0(i64 8, ptr %9) #5
  %14 = load ptr, ptr %6, align 8, !tbaa !3
  store ptr %14, ptr %9, align 8, !tbaa !3
  call void @llvm.lifetime.start.p0(i64 8, ptr %10) #5
  %15 = load ptr, ptr %5, align 8, !tbaa !3
  %16 = call i64 @lv_strlen(ptr noundef %15)
  store i64 %16, ptr %10, align 8, !tbaa !32
  br label %17

17:                                               ; preds = %82, %2
  %18 = load ptr, ptr %9, align 8, !tbaa !3
  %19 = getelementptr inbounds i8, ptr %18, i64 0
  %20 = load i8, ptr %19, align 1, !tbaa !29
  %21 = sext i8 %20 to i32
  %22 = icmp ne i32 %21, 0
  br i1 %22, label %23, label %85

23:                                               ; preds = %17
  store i32 0, ptr %7, align 4, !tbaa !22
  br label %24

24:                                               ; preds = %43, %23
  %25 = load ptr, ptr %9, align 8, !tbaa !3
  %26 = load i32, ptr %7, align 4, !tbaa !22
  %27 = zext i32 %26 to i64
  %28 = getelementptr inbounds nuw i8, ptr %25, i64 %27
  %29 = load i8, ptr %28, align 1, !tbaa !29
  %30 = sext i8 %29 to i32
  %31 = icmp ne i32 %30, 10
  br i1 %31, label %32, label %40

32:                                               ; preds = %24
  %33 = load ptr, ptr %9, align 8, !tbaa !3
  %34 = load i32, ptr %7, align 4, !tbaa !22
  %35 = zext i32 %34 to i64
  %36 = getelementptr inbounds nuw i8, ptr %33, i64 %35
  %37 = load i8, ptr %36, align 1, !tbaa !29
  %38 = sext i8 %37 to i32
  %39 = icmp ne i32 %38, 0
  br label %40

40:                                               ; preds = %32, %24
  %41 = phi i1 [ false, %24 ], [ %39, %32 ]
  br i1 %41, label %42, label %46

42:                                               ; preds = %40
  br label %43

43:                                               ; preds = %42
  %44 = load i32, ptr %7, align 4, !tbaa !22
  %45 = add i32 %44, 1
  store i32 %45, ptr %7, align 4, !tbaa !22
  br label %24, !llvm.loop !38

46:                                               ; preds = %40
  %47 = load i64, ptr %10, align 8, !tbaa !32
  %48 = load i32, ptr %7, align 4, !tbaa !22
  %49 = zext i32 %48 to i64
  %50 = icmp eq i64 %47, %49
  br i1 %50, label %51, label %69

51:                                               ; preds = %46
  %52 = load ptr, ptr %9, align 8, !tbaa !3
  %53 = load ptr, ptr %5, align 8, !tbaa !3
  %54 = load i64, ptr %10, align 8, !tbaa !32
  %55 = load i32, ptr %7, align 4, !tbaa !22
  %56 = zext i32 %55 to i64
  %57 = icmp ult i64 %54, %56
  br i1 %57, label %58, label %60

58:                                               ; preds = %51
  %59 = load i64, ptr %10, align 8, !tbaa !32
  br label %63

60:                                               ; preds = %51
  %61 = load i32, ptr %7, align 4, !tbaa !22
  %62 = zext i32 %61 to i64
  br label %63

63:                                               ; preds = %60, %58
  %64 = phi i64 [ %59, %58 ], [ %62, %60 ]
  %65 = call i32 @lv_memcmp(ptr noundef %52, ptr noundef %53, i64 noundef %64)
  %66 = icmp eq i32 %65, 0
  br i1 %66, label %67, label %69

67:                                               ; preds = %63
  %68 = load i32, ptr %8, align 4, !tbaa !22
  store i32 %68, ptr %3, align 4
  store i32 1, ptr %11, align 4
  br label %86

69:                                               ; preds = %63, %46
  %70 = load ptr, ptr %9, align 8, !tbaa !3
  %71 = load i32, ptr %7, align 4, !tbaa !22
  %72 = zext i32 %71 to i64
  %73 = getelementptr inbounds nuw i8, ptr %70, i64 %72
  store ptr %73, ptr %9, align 8, !tbaa !3
  %74 = load ptr, ptr %9, align 8, !tbaa !3
  %75 = getelementptr inbounds i8, ptr %74, i64 0
  %76 = load i8, ptr %75, align 1, !tbaa !29
  %77 = sext i8 %76 to i32
  %78 = icmp eq i32 %77, 10
  br i1 %78, label %79, label %82

79:                                               ; preds = %69
  %80 = load ptr, ptr %9, align 8, !tbaa !3
  %81 = getelementptr inbounds nuw i8, ptr %80, i32 1
  store ptr %81, ptr %9, align 8, !tbaa !3
  br label %82

82:                                               ; preds = %79, %69
  store i32 0, ptr %7, align 4, !tbaa !22
  %83 = load i32, ptr %8, align 4, !tbaa !22
  %84 = add i32 %83, 1
  store i32 %84, ptr %8, align 4, !tbaa !22
  br label %17, !llvm.loop !39

85:                                               ; preds = %17
  store i32 -1, ptr %3, align 4
  store i32 1, ptr %11, align 4
  br label %86

86:                                               ; preds = %85, %67
  call void @llvm.lifetime.end.p0(i64 8, ptr %10) #5
  call void @llvm.lifetime.end.p0(i64 8, ptr %9) #5
  call void @llvm.lifetime.end.p0(i64 4, ptr %8) #5
  call void @llvm.lifetime.end.p0(i64 4, ptr %7) #5
  call void @llvm.lifetime.end.p0(i64 8, ptr %6) #5
  %87 = load i32, ptr %3, align 4
  ret i32 %87
}