; Function Attrs: nounwind uwtable
define i32 @lv_dropdown_get_option_index(ptr nocapture noundef readonly %0, ptr noundef %1) local_unnamed_addr #0 {
  %3 = getelementptr inbounds nuw i8, ptr %0, i64 88
  %4 = load ptr, ptr %3, align 8, !tbaa !12
  %5 = icmp eq ptr %4, null
  %spec.select.i = select i1 %5, ptr @.str.3, ptr %4
  %6 = tail call i64 @lv_strlen(ptr noundef %1) #7
  %7 = load i8, ptr %spec.select.i, align 1, !tbaa !19
  %.not32 = icmp eq i8 %7, 0
  br i1 %.not32, label %._crit_edge, label %.preheader

.preheader:                                       ; preds = %2, %19
  %8 = phi i8 [ %23, %19 ], [ %7, %2 ]
  %.02334 = phi ptr [ %spec.select, %19 ], [ %spec.select.i, %2 ]
  %.02433 = phi i32 [ %22, %19 ], [ 0, %2 ]
  br label %9

9:                                                ; preds = %.preheader, %11
  %10 = phi i8 [ %.pre, %11 ], [ %8, %.preheader ]
  %.025 = phi i32 [ %12, %11 ], [ 0, %.preheader ]
  switch i8 %10, label %11 [
    i8 10, label %.critedge
    i8 0, label %.critedge
  ]

11:                                               ; preds = %9
  %12 = add i32 %.025, 1
  %.phi.trans.insert = zext i32 %12 to i64
  %.phi.trans.insert37 = getelementptr inbounds nuw i8, ptr %.02334, i64 %.phi.trans.insert
  %.pre = load i8, ptr %.phi.trans.insert37, align 1, !tbaa !19
  br label %9, !llvm.loop !34

.critedge:                                        ; preds = %9, %9
  %13 = zext i32 %.025 to i64
  %14 = getelementptr inbounds nuw i8, ptr %.02334, i64 %13
  %15 = icmp eq i64 %6, %13
  br i1 %15, label %16, label %19

16:                                               ; preds = %.critedge
  %17 = tail call i32 @lv_memcmp(ptr noundef nonnull %.02334, ptr noundef %1, i64 noundef %6) #7
  %18 = icmp eq i32 %17, 0
  br i1 %18, label %._crit_edge, label %._crit_edge38

._crit_edge38:                                    ; preds = %16
  %.pre39 = load i8, ptr %14, align 1, !tbaa !19
  br label %19

19:                                               ; preds = %._crit_edge38, %.critedge
  %20 = phi i8 [ %.pre39, %._crit_edge38 ], [ %10, %.critedge ]
  %21 = icmp eq i8 %20, 10
  %spec.select.idx = zext i1 %21 to i64
  %spec.select = getelementptr inbounds nuw i8, ptr %14, i64 %spec.select.idx
  %22 = add i32 %.02433, 1
  %23 = load i8, ptr %spec.select, align 1, !tbaa !19
  %.not = icmp eq i8 %23, 0
  br i1 %.not, label %._crit_edge, label %.preheader, !llvm.loop !35

._crit_edge:                                      ; preds = %16, %19, %2
  %.0 = phi i32 [ -1, %2 ], [ -1, %19 ], [ %.02433, %16 ]
  ret i32 %.0
}